; Function Attrs: mustprogress nofree norecurse nosync nounwind willreturn memory(read, inaccessiblemem: none) uwtable
define hidden noundef zeroext i1 @_ZNK3sat4drat10is_cleanedERNS_6clauseE(ptr nocapture noundef nonnull readnone align 8 dereferenceable(664) %this, ptr nocapture noundef nonnull readonly align 4 dereferenceable(20) %c) local_unnamed_addr #8 align 2 {
entry:
  %m_size.i = getelementptr inbounds i8, ptr %c, i64 4
  %0 = load i32, ptr %m_size.i, align 4
  %m_lits.i = getelementptr inbounds i8, ptr %c, i64 20
  %cmp9.not = icmp eq i32 %0, 0
  br i1 %cmp9.not, label %return, label %for.body.preheader

for.body.preheader:                               ; preds = %entry
  %.b = load i1, ptr @_ZN3satL12null_literalE.0, align 4
  %1 = select i1 %.b, i32 -2, i32 0
  %2 = zext i32 %0 to i64
  %3 = load i32, ptr %m_lits.i, align 4
  %cmp.i14 = icmp eq i32 %3, %1
  br i1 %cmp.i14, label %return, label %for.cond

for.cond:                                         ; preds = %for.body.preheader, %for.body
  %4 = phi i32 [ %5, %for.body ], [ %3, %for.body.preheader ]
  %indvars.iv15 = phi i64 [ %indvars.iv.next, %for.body ], [ 0, %for.body.preheader ]
  %indvars.iv.next = add nuw nsw i64 %indvars.iv15, 1
  %exitcond.not = icmp eq i64 %indvars.iv.next, %2
  br i1 %exitcond.not, label %return.loopexit, label %for.body, !llvm.loop !11

for.body:                                         ; preds = %for.cond
  %arrayidx.i = getelementptr inbounds [0 x %"class.sat::literal"], ptr %m_lits.i, i64 0, i64 %indvars.iv.next
  %5 = load i32, ptr %arrayidx.i, align 4
  %cmp.i = icmp eq i32 %5, %4
  br i1 %cmp.i, label %return.loopexit, label %for.cond, !llvm.loop !11

return.loopexit:                                  ; preds = %for.body, %for.cond
  %cmp.le = icmp ult i64 %indvars.iv.next, %2
  br label %return

return:                                           ; preds = %return.loopexit, %for.body.preheader, %entry
  %cmp.lcssa = phi i1 [ false, %entry ], [ true, %for.body.preheader ], [ %cmp.le, %return.loopexit ]
  ret i1 %cmp.lcssa
}